
code.elf:     file format elf32-avr


Disassembly of section .text:

00000000 <__vectors>:
   0:	0c 94 24 01 	jmp	0x248	; 0x248 <__ctors_end>
   4:	0c 94 41 01 	jmp	0x282	; 0x282 <__bad_interrupt>
   8:	0c 94 41 01 	jmp	0x282	; 0x282 <__bad_interrupt>
   c:	0c 94 41 01 	jmp	0x282	; 0x282 <__bad_interrupt>
  10:	0c 94 41 01 	jmp	0x282	; 0x282 <__bad_interrupt>
  14:	0c 94 41 01 	jmp	0x282	; 0x282 <__bad_interrupt>
  18:	0c 94 41 01 	jmp	0x282	; 0x282 <__bad_interrupt>
  1c:	0c 94 41 01 	jmp	0x282	; 0x282 <__bad_interrupt>
  20:	0c 94 41 01 	jmp	0x282	; 0x282 <__bad_interrupt>
  24:	0c 94 41 01 	jmp	0x282	; 0x282 <__bad_interrupt>
  28:	0c 94 41 01 	jmp	0x282	; 0x282 <__bad_interrupt>
  2c:	0c 94 b2 01 	jmp	0x364	; 0x364 <__vector_11>
  30:	0c 94 41 01 	jmp	0x282	; 0x282 <__bad_interrupt>
  34:	0c 94 41 01 	jmp	0x282	; 0x282 <__bad_interrupt>
  38:	0c 94 41 01 	jmp	0x282	; 0x282 <__bad_interrupt>
  3c:	0c 94 41 01 	jmp	0x282	; 0x282 <__bad_interrupt>
  40:	0c 94 41 01 	jmp	0x282	; 0x282 <__bad_interrupt>
  44:	0c 94 41 01 	jmp	0x282	; 0x282 <__bad_interrupt>
  48:	0c 94 41 01 	jmp	0x282	; 0x282 <__bad_interrupt>
  4c:	0c 94 41 01 	jmp	0x282	; 0x282 <__bad_interrupt>
  50:	0c 94 41 01 	jmp	0x282	; 0x282 <__bad_interrupt>
  54:	0c 94 41 01 	jmp	0x282	; 0x282 <__bad_interrupt>
  58:	0c 94 41 01 	jmp	0x282	; 0x282 <__bad_interrupt>
  5c:	0c 94 41 01 	jmp	0x282	; 0x282 <__bad_interrupt>
  60:	0c 94 41 01 	jmp	0x282	; 0x282 <__bad_interrupt>
  64:	0c 94 41 01 	jmp	0x282	; 0x282 <__bad_interrupt>

00000068 <CHARSET>:
  68:	00 00 00 00 00 00 00 5f 00 00 00 07 00 07 00 14     ......._........
  78:	7f 14 7f 14 24 2a 7f 2a 12 23 13 08 64 62 36 49     ....$*.*.#..db6I
  88:	55 22 50 00 05 03 00 00 00 1c 22 41 00 00 41 22     U"P......."A..A"
  98:	1c 00 14 08 3e 08 14 08 08 3e 08 08 00 50 30 00     ....>....>...P0.
  a8:	00 08 08 08 08 08 00 60 60 00 00 20 10 08 04 02     .......``.. ....
  b8:	3e 51 49 45 3e 00 42 7f 40 00 42 61 51 49 46 21     >QIE>.B.@.BaQIF!
  c8:	41 45 4b 31 18 14 12 7f 10 27 45 45 45 39 3c 4a     AEK1.....'EEE9<J
  d8:	49 49 30 01 71 09 05 03 36 49 49 49 36 06 49 49     II0.q...6III6.II
  e8:	29 1e 00 36 36 00 00 00 56 36 00 00 08 14 22 41     )..66...V6...."A
  f8:	00 14 14 14 14 14 00 41 22 14 08 02 01 51 09 06     .......A"....Q..
 108:	32 49 79 41 3e 7e 11 11 11 7e 7f 49 49 49 36 3e     2IyA>~...~.III6>
 118:	41 41 41 22 7f 41 41 22 1c 7f 49 49 49 41 7f 09     AAA".AA"..IIIA..
 128:	09 09 01 3e 41 49 49 7a 7f 08 08 08 7f 00 41 7f     ...>AIIz......A.
 138:	41 00 20 40 41 3f 01 7f 08 14 22 41 7f 40 40 40     A. @A?...."A.@@@
 148:	40 7f 02 0c 02 7f 7f 04 08 10 7f 3e 41 41 41 3e     @..........>AAA>
 158:	7f 09 09 09 06 3e 41 51 21 5e 7f 09 19 29 46 46     .....>AQ!^...)FF
 168:	49 49 49 31 01 01 7f 01 01 3f 40 40 40 3f 1f 20     III1.....?@@@?. 
 178:	40 20 1f 3f 40 38 40 3f 63 14 08 14 63 07 08 70     @ .?@8@?c...c..p
 188:	08 07 61 51 49 45 43 00 7f 41 41 00 02 04 08 10     ..aQIEC..AA.....
 198:	20 00 41 41 7f 00 04 02 01 02 04 40 40 40 40 40      .AA.......@@@@@
 1a8:	00 01 02 04 00 20 54 54 54 78 7f 48 44 44 38 38     ..... TTTx.HDD88
 1b8:	44 44 44 20 38 44 44 48 7f 38 54 54 54 18 08 7e     DDD 8DDH.8TTT..~
 1c8:	09 01 02 0c 52 52 52 3e 7f 08 04 04 78 00 44 7d     ....RRR>....x.D}
 1d8:	40 00 20 40 44 3d 00 7f 10 28 44 00 00 41 7f 40     @. @D=...(D..A.@
 1e8:	00 7c 04 18 04 78 7c 08 04 04 78 38 44 44 44 38     .|...x|...x8DDD8
 1f8:	7c 14 14 14 08 08 14 14 18 7c 7c 08 04 04 08 48     |........||....H
 208:	54 54 54 20 04 3f 44 40 20 3c 40 40 20 7c 1c 20     TTT .?D@ <@@ |. 
 218:	40 20 1c 3c 40 30 40 3c 44 28 10 28 44 0c 50 50     @ .<@0@<D(.(D.PP
 228:	50 3c 44 64 54 4c 44 00 08 36 41 00 00 00 7f 00     P<DdTLD..6A.....
 238:	00 00 41 36 08 00 10 08 08 10 08 00 00 00 00 00     ..A6............

00000248 <__ctors_end>:
 248:	11 24       	eor	r1, r1
 24a:	1f be       	out	0x3f, r1	; 63
 24c:	cf ef       	ldi	r28, 0xFF	; 255
 24e:	d8 e0       	ldi	r29, 0x08	; 8
 250:	de bf       	out	0x3e, r29	; 62
 252:	cd bf       	out	0x3d, r28	; 61

00000254 <__do_copy_data>:
 254:	11 e0       	ldi	r17, 0x01	; 1
 256:	a0 e0       	ldi	r26, 0x00	; 0
 258:	b1 e0       	ldi	r27, 0x01	; 1
 25a:	ec e7       	ldi	r30, 0x7C	; 124
 25c:	fc e0       	ldi	r31, 0x0C	; 12
 25e:	02 c0       	rjmp	.+4      	; 0x264 <__do_copy_data+0x10>
 260:	05 90       	lpm	r0, Z+
 262:	0d 92       	st	X+, r0
 264:	a4 32       	cpi	r26, 0x24	; 36
 266:	b1 07       	cpc	r27, r17
 268:	d9 f7       	brne	.-10     	; 0x260 <__do_copy_data+0xc>

0000026a <__do_clear_bss>:
 26a:	23 e0       	ldi	r18, 0x03	; 3
 26c:	a4 e2       	ldi	r26, 0x24	; 36
 26e:	b1 e0       	ldi	r27, 0x01	; 1
 270:	01 c0       	rjmp	.+2      	; 0x274 <.do_clear_bss_start>

00000272 <.do_clear_bss_loop>:
 272:	1d 92       	st	X+, r1

00000274 <.do_clear_bss_start>:
 274:	a0 36       	cpi	r26, 0x60	; 96
 276:	b2 07       	cpc	r27, r18
 278:	e1 f7       	brne	.-8      	; 0x272 <.do_clear_bss_loop>
 27a:	0e 94 77 03 	call	0x6ee	; 0x6ee <main>
 27e:	0c 94 3c 06 	jmp	0xc78	; 0xc78 <_exit>

00000282 <__bad_interrupt>:
 282:	0c 94 00 00 	jmp	0	; 0x0 <__vectors>

00000286 <lcd_atualizar>:
 286:	cf 93       	push	r28
 288:	df 93       	push	r29
 28a:	00 d0       	rcall	.+0      	; 0x28c <lcd_atualizar+0x6>
 28c:	00 d0       	rcall	.+0      	; 0x28e <lcd_atualizar+0x8>
 28e:	cd b7       	in	r28, 0x3d	; 61
 290:	de b7       	in	r29, 0x3e	; 62
 292:	0e 94 30 02 	call	0x460	; 0x460 <nokia_lcd_init>
 296:	0e 94 73 02 	call	0x4e6	; 0x4e6 <nokia_lcd_clear>
 29a:	61 e0       	ldi	r22, 0x01	; 1
 29c:	8e e0       	ldi	r24, 0x0E	; 14
 29e:	91 e0       	ldi	r25, 0x01	; 1
 2a0:	0e 94 4d 03 	call	0x69a	; 0x69a <nokia_lcd_write_string>
 2a4:	60 91 0a 01 	lds	r22, 0x010A	; 0x80010a <credito>
 2a8:	70 91 0b 01 	lds	r23, 0x010B	; 0x80010b <credito+0x1>
 2ac:	80 91 0c 01 	lds	r24, 0x010C	; 0x80010c <credito+0x2>
 2b0:	90 91 0d 01 	lds	r25, 0x010D	; 0x80010d <credito+0x3>
 2b4:	0e 94 83 05 	call	0xb06	; 0xb06 <__fixsfsi>
 2b8:	69 83       	std	Y+1, r22	; 0x01
 2ba:	7a 83       	std	Y+2, r23	; 0x02
 2bc:	8b 83       	std	Y+3, r24	; 0x03
 2be:	9c 83       	std	Y+4, r25	; 0x04
 2c0:	61 e0       	ldi	r22, 0x01	; 1
 2c2:	89 81       	ldd	r24, Y+1	; 0x01
 2c4:	0e 94 ac 02 	call	0x558	; 0x558 <nokia_lcd_write_char>
 2c8:	61 e0       	ldi	r22, 0x01	; 1
 2ca:	8e e2       	ldi	r24, 0x2E	; 46
 2cc:	0e 94 ac 02 	call	0x558	; 0x558 <nokia_lcd_write_char>
 2d0:	60 91 06 01 	lds	r22, 0x0106	; 0x800106 <decimo>
 2d4:	70 91 07 01 	lds	r23, 0x0107	; 0x800107 <decimo+0x1>
 2d8:	80 91 08 01 	lds	r24, 0x0108	; 0x800108 <decimo+0x2>
 2dc:	90 91 09 01 	lds	r25, 0x0109	; 0x800109 <decimo+0x3>
 2e0:	0e 94 83 05 	call	0xb06	; 0xb06 <__fixsfsi>
 2e4:	69 83       	std	Y+1, r22	; 0x01
 2e6:	7a 83       	std	Y+2, r23	; 0x02
 2e8:	8b 83       	std	Y+3, r24	; 0x03
 2ea:	9c 83       	std	Y+4, r25	; 0x04
 2ec:	61 e0       	ldi	r22, 0x01	; 1
 2ee:	89 81       	ldd	r24, Y+1	; 0x01
 2f0:	0e 94 ac 02 	call	0x558	; 0x558 <nokia_lcd_write_char>
 2f4:	60 91 02 01 	lds	r22, 0x0102	; 0x800102 <centesimo>
 2f8:	70 91 03 01 	lds	r23, 0x0103	; 0x800103 <centesimo+0x1>
 2fc:	80 91 04 01 	lds	r24, 0x0104	; 0x800104 <centesimo+0x2>
 300:	90 91 05 01 	lds	r25, 0x0105	; 0x800105 <centesimo+0x3>
 304:	0e 94 83 05 	call	0xb06	; 0xb06 <__fixsfsi>
 308:	69 83       	std	Y+1, r22	; 0x01
 30a:	7a 83       	std	Y+2, r23	; 0x02
 30c:	8b 83       	std	Y+3, r24	; 0x03
 30e:	9c 83       	std	Y+4, r25	; 0x04
 310:	61 e0       	ldi	r22, 0x01	; 1
 312:	89 81       	ldd	r24, Y+1	; 0x01
 314:	0e 94 ac 02 	call	0x558	; 0x558 <nokia_lcd_write_char>
 318:	61 e0       	ldi	r22, 0x01	; 1
 31a:	88 e1       	ldi	r24, 0x18	; 24
 31c:	91 e0       	ldi	r25, 0x01	; 1
 31e:	0e 94 4d 03 	call	0x69a	; 0x69a <nokia_lcd_write_string>
 322:	61 e0       	ldi	r22, 0x01	; 1
 324:	80 91 00 01 	lds	r24, 0x0100	; 0x800100 <tempoRestante>
 328:	0e 94 ac 02 	call	0x558	; 0x558 <nokia_lcd_write_char>
 32c:	0f 90       	pop	r0
 32e:	0f 90       	pop	r0
 330:	0f 90       	pop	r0
 332:	0f 90       	pop	r0
 334:	df 91       	pop	r29
 336:	cf 91       	pop	r28
 338:	0c 94 62 03 	jmp	0x6c4	; 0x6c4 <nokia_lcd_render>

0000033c <timer_init>:
 33c:	e1 e8       	ldi	r30, 0x81	; 129
 33e:	f0 e0       	ldi	r31, 0x00	; 0
 340:	80 81       	ld	r24, Z
 342:	88 60       	ori	r24, 0x08	; 8
 344:	80 83       	st	Z, r24
 346:	88 e0       	ldi	r24, 0x08	; 8
 348:	9d e3       	ldi	r25, 0x3D	; 61
 34a:	90 93 89 00 	sts	0x0089, r25	; 0x800089 <__TEXT_REGION_LENGTH__+0x7e0089>
 34e:	80 93 88 00 	sts	0x0088, r24	; 0x800088 <__TEXT_REGION_LENGTH__+0x7e0088>
 352:	af e6       	ldi	r26, 0x6F	; 111
 354:	b0 e0       	ldi	r27, 0x00	; 0
 356:	8c 91       	ld	r24, X
 358:	82 60       	ori	r24, 0x02	; 2
 35a:	8c 93       	st	X, r24
 35c:	80 81       	ld	r24, Z
 35e:	85 60       	ori	r24, 0x05	; 5
 360:	80 83       	st	Z, r24
 362:	08 95       	ret

00000364 <__vector_11>:
 364:	1f 92       	push	r1
 366:	0f 92       	push	r0
 368:	0f b6       	in	r0, 0x3f	; 63
 36a:	0f 92       	push	r0
 36c:	11 24       	eor	r1, r1
 36e:	2f 93       	push	r18
 370:	3f 93       	push	r19
 372:	4f 93       	push	r20
 374:	5f 93       	push	r21
 376:	6f 93       	push	r22
 378:	7f 93       	push	r23
 37a:	8f 93       	push	r24
 37c:	9f 93       	push	r25
 37e:	af 93       	push	r26
 380:	bf 93       	push	r27
 382:	ef 93       	push	r30
 384:	ff 93       	push	r31
 386:	80 91 25 01 	lds	r24, 0x0125	; 0x800125 <contagemIniciada>
 38a:	88 23       	and	r24, r24
 38c:	c9 f1       	breq	.+114    	; 0x400 <__LOCK_REGION_LENGTH__>
 38e:	80 91 00 01 	lds	r24, 0x0100	; 0x800100 <tempoRestante>
 392:	90 91 01 01 	lds	r25, 0x0101	; 0x800101 <tempoRestante+0x1>
 396:	81 33       	cpi	r24, 0x31	; 49
 398:	91 05       	cpc	r25, r1
 39a:	94 f1       	brlt	.+100    	; 0x400 <__LOCK_REGION_LENGTH__>
 39c:	01 97       	sbiw	r24, 0x01	; 1
 39e:	90 93 01 01 	sts	0x0101, r25	; 0x800101 <tempoRestante+0x1>
 3a2:	80 93 00 01 	sts	0x0100, r24	; 0x800100 <tempoRestante>
 3a6:	0e 94 43 01 	call	0x286	; 0x286 <lcd_atualizar>
 3aa:	80 91 00 01 	lds	r24, 0x0100	; 0x800100 <tempoRestante>
 3ae:	90 91 01 01 	lds	r25, 0x0101	; 0x800101 <tempoRestante+0x1>
 3b2:	c0 97       	sbiw	r24, 0x30	; 48
 3b4:	29 f5       	brne	.+74     	; 0x400 <__LOCK_REGION_LENGTH__>
 3b6:	80 e0       	ldi	r24, 0x00	; 0
 3b8:	90 e0       	ldi	r25, 0x00	; 0
 3ba:	a0 e4       	ldi	r26, 0x40	; 64
 3bc:	b2 e4       	ldi	r27, 0x42	; 66
 3be:	80 93 0a 01 	sts	0x010A, r24	; 0x80010a <credito>
 3c2:	90 93 0b 01 	sts	0x010B, r25	; 0x80010b <credito+0x1>
 3c6:	a0 93 0c 01 	sts	0x010C, r26	; 0x80010c <credito+0x2>
 3ca:	b0 93 0d 01 	sts	0x010D, r27	; 0x80010d <credito+0x3>
 3ce:	80 93 06 01 	sts	0x0106, r24	; 0x800106 <decimo>
 3d2:	90 93 07 01 	sts	0x0107, r25	; 0x800107 <decimo+0x1>
 3d6:	a0 93 08 01 	sts	0x0108, r26	; 0x800108 <decimo+0x2>
 3da:	b0 93 09 01 	sts	0x0109, r27	; 0x800109 <decimo+0x3>
 3de:	80 93 02 01 	sts	0x0102, r24	; 0x800102 <centesimo>
 3e2:	90 93 03 01 	sts	0x0103, r25	; 0x800103 <centesimo+0x1>
 3e6:	a0 93 04 01 	sts	0x0104, r26	; 0x800104 <centesimo+0x2>
 3ea:	b0 93 05 01 	sts	0x0105, r27	; 0x800105 <centesimo+0x3>
 3ee:	10 92 25 01 	sts	0x0125, r1	; 0x800125 <contagemIniciada>
 3f2:	44 98       	cbi	0x08, 4	; 8
 3f4:	43 9a       	sbi	0x08, 3	; 8
 3f6:	81 e0       	ldi	r24, 0x01	; 1
 3f8:	80 93 24 01 	sts	0x0124, r24	; 0x800124 <redON>
 3fc:	0e 94 43 01 	call	0x286	; 0x286 <lcd_atualizar>
 400:	ff 91       	pop	r31
 402:	ef 91       	pop	r30
 404:	bf 91       	pop	r27
 406:	af 91       	pop	r26
 408:	9f 91       	pop	r25
 40a:	8f 91       	pop	r24
 40c:	7f 91       	pop	r23
 40e:	6f 91       	pop	r22
 410:	5f 91       	pop	r21
 412:	4f 91       	pop	r20
 414:	3f 91       	pop	r19
 416:	2f 91       	pop	r18
 418:	0f 90       	pop	r0
 41a:	0f be       	out	0x3f, r0	; 63
 41c:	0f 90       	pop	r0
 41e:	1f 90       	pop	r1
 420:	18 95       	reti

00000422 <write>:
 422:	29 98       	cbi	0x05, 1	; 5
 424:	66 23       	and	r22, r22
 426:	a9 f0       	breq	.+42     	; 0x452 <write+0x30>
 428:	2b 9a       	sbi	0x05, 3	; 5
 42a:	27 e0       	ldi	r18, 0x07	; 7
 42c:	30 e0       	ldi	r19, 0x00	; 0
 42e:	90 e0       	ldi	r25, 0x00	; 0
 430:	ac 01       	movw	r20, r24
 432:	02 2e       	mov	r0, r18
 434:	02 c0       	rjmp	.+4      	; 0x43a <write+0x18>
 436:	55 95       	asr	r21
 438:	47 95       	ror	r20
 43a:	0a 94       	dec	r0
 43c:	e2 f7       	brpl	.-8      	; 0x436 <write+0x14>
 43e:	40 ff       	sbrs	r20, 0
 440:	0a c0       	rjmp	.+20     	; 0x456 <write+0x34>
 442:	2c 9a       	sbi	0x05, 4	; 5
 444:	2d 9a       	sbi	0x05, 5	; 5
 446:	2d 98       	cbi	0x05, 5	; 5
 448:	21 50       	subi	r18, 0x01	; 1
 44a:	31 09       	sbc	r19, r1
 44c:	88 f7       	brcc	.-30     	; 0x430 <write+0xe>
 44e:	29 9a       	sbi	0x05, 1	; 5
 450:	08 95       	ret
 452:	2b 98       	cbi	0x05, 3	; 5
 454:	ea cf       	rjmp	.-44     	; 0x42a <write+0x8>
 456:	2c 98       	cbi	0x05, 4	; 5
 458:	f5 cf       	rjmp	.-22     	; 0x444 <write+0x22>

0000045a <write_cmd>:
 45a:	60 e0       	ldi	r22, 0x00	; 0
 45c:	0c 94 11 02 	jmp	0x422	; 0x422 <write>

00000460 <nokia_lcd_init>:
 460:	cf 93       	push	r28
 462:	df 93       	push	r29
 464:	21 9a       	sbi	0x04, 1	; 4
 466:	22 9a       	sbi	0x04, 2	; 4
 468:	23 9a       	sbi	0x04, 3	; 4
 46a:	24 9a       	sbi	0x04, 4	; 4
 46c:	25 9a       	sbi	0x04, 5	; 4
 46e:	2a 9a       	sbi	0x05, 2	; 5
 470:	29 9a       	sbi	0x05, 1	; 5
 472:	8f e3       	ldi	r24, 0x3F	; 63
 474:	9c e9       	ldi	r25, 0x9C	; 156
 476:	01 97       	sbiw	r24, 0x01	; 1
 478:	f1 f7       	brne	.-4      	; 0x476 <nokia_lcd_init+0x16>
 47a:	00 c0       	rjmp	.+0      	; 0x47c <nokia_lcd_init+0x1c>
 47c:	00 00       	nop
 47e:	2a 98       	cbi	0x05, 2	; 5
 480:	9f ef       	ldi	r25, 0xFF	; 255
 482:	2a e6       	ldi	r18, 0x6A	; 106
 484:	83 e0       	ldi	r24, 0x03	; 3
 486:	91 50       	subi	r25, 0x01	; 1
 488:	20 40       	sbci	r18, 0x00	; 0
 48a:	80 40       	sbci	r24, 0x00	; 0
 48c:	e1 f7       	brne	.-8      	; 0x486 <nokia_lcd_init+0x26>
 48e:	00 c0       	rjmp	.+0      	; 0x490 <nokia_lcd_init+0x30>
 490:	00 00       	nop
 492:	2a 9a       	sbi	0x05, 2	; 5
 494:	29 98       	cbi	0x05, 1	; 5
 496:	81 e2       	ldi	r24, 0x21	; 33
 498:	0e 94 2d 02 	call	0x45a	; 0x45a <write_cmd>
 49c:	83 e1       	ldi	r24, 0x13	; 19
 49e:	0e 94 2d 02 	call	0x45a	; 0x45a <write_cmd>
 4a2:	86 e0       	ldi	r24, 0x06	; 6
 4a4:	0e 94 2d 02 	call	0x45a	; 0x45a <write_cmd>
 4a8:	82 ec       	ldi	r24, 0xC2	; 194
 4aa:	0e 94 2d 02 	call	0x45a	; 0x45a <write_cmd>
 4ae:	80 e2       	ldi	r24, 0x20	; 32
 4b0:	0e 94 2d 02 	call	0x45a	; 0x45a <write_cmd>
 4b4:	89 e0       	ldi	r24, 0x09	; 9
 4b6:	0e 94 2d 02 	call	0x45a	; 0x45a <write_cmd>
 4ba:	80 e8       	ldi	r24, 0x80	; 128
 4bc:	0e 94 2d 02 	call	0x45a	; 0x45a <write_cmd>
 4c0:	80 e4       	ldi	r24, 0x40	; 64
 4c2:	0e 94 2d 02 	call	0x45a	; 0x45a <write_cmd>
 4c6:	c8 ef       	ldi	r28, 0xF8	; 248
 4c8:	d1 e0       	ldi	r29, 0x01	; 1
 4ca:	61 e0       	ldi	r22, 0x01	; 1
 4cc:	80 e0       	ldi	r24, 0x00	; 0
 4ce:	0e 94 11 02 	call	0x422	; 0x422 <write>
 4d2:	21 97       	sbiw	r28, 0x01	; 1
 4d4:	d1 f7       	brne	.-12     	; 0x4ca <nokia_lcd_init+0x6a>
 4d6:	88 e0       	ldi	r24, 0x08	; 8
 4d8:	0e 94 2d 02 	call	0x45a	; 0x45a <write_cmd>
 4dc:	8c e0       	ldi	r24, 0x0C	; 12
 4de:	df 91       	pop	r29
 4e0:	cf 91       	pop	r28
 4e2:	0c 94 2d 02 	jmp	0x45a	; 0x45a <write_cmd>

000004e6 <nokia_lcd_clear>:
 4e6:	80 e8       	ldi	r24, 0x80	; 128
 4e8:	0e 94 2d 02 	call	0x45a	; 0x45a <write_cmd>
 4ec:	80 e4       	ldi	r24, 0x40	; 64
 4ee:	0e 94 2d 02 	call	0x45a	; 0x45a <write_cmd>
 4f2:	10 92 5e 03 	sts	0x035E, r1	; 0x80035e <nokia_lcd+0x1f8>
 4f6:	10 92 5f 03 	sts	0x035F, r1	; 0x80035f <nokia_lcd+0x1f9>
 4fa:	e6 e6       	ldi	r30, 0x66	; 102
 4fc:	f1 e0       	ldi	r31, 0x01	; 1
 4fe:	88 ef       	ldi	r24, 0xF8	; 248
 500:	91 e0       	ldi	r25, 0x01	; 1
 502:	df 01       	movw	r26, r30
 504:	9c 01       	movw	r18, r24
 506:	1d 92       	st	X+, r1
 508:	21 50       	subi	r18, 0x01	; 1
 50a:	30 40       	sbci	r19, 0x00	; 0
 50c:	e1 f7       	brne	.-8      	; 0x506 <nokia_lcd_clear+0x20>
 50e:	08 95       	ret

00000510 <nokia_lcd_power>:
 510:	81 11       	cpse	r24, r1
 512:	03 c0       	rjmp	.+6      	; 0x51a <nokia_lcd_power+0xa>
 514:	84 e2       	ldi	r24, 0x24	; 36
 516:	0c 94 2d 02 	jmp	0x45a	; 0x45a <write_cmd>
 51a:	80 e2       	ldi	r24, 0x20	; 32
 51c:	fc cf       	rjmp	.-8      	; 0x516 <nokia_lcd_power+0x6>

0000051e <nokia_lcd_set_pixel>:
 51e:	96 2f       	mov	r25, r22
 520:	96 95       	lsr	r25
 522:	96 95       	lsr	r25
 524:	96 95       	lsr	r25
 526:	e8 2f       	mov	r30, r24
 528:	f0 e0       	ldi	r31, 0x00	; 0
 52a:	84 e5       	ldi	r24, 0x54	; 84
 52c:	98 9f       	mul	r25, r24
 52e:	e0 0d       	add	r30, r0
 530:	f1 1d       	adc	r31, r1
 532:	11 24       	eor	r1, r1
 534:	ea 59       	subi	r30, 0x9A	; 154
 536:	fe 4f       	sbci	r31, 0xFE	; 254
 538:	20 81       	ld	r18, Z
 53a:	67 70       	andi	r22, 0x07	; 7
 53c:	81 e0       	ldi	r24, 0x01	; 1
 53e:	90 e0       	ldi	r25, 0x00	; 0
 540:	01 c0       	rjmp	.+2      	; 0x544 <nokia_lcd_set_pixel+0x26>
 542:	88 0f       	add	r24, r24
 544:	6a 95       	dec	r22
 546:	ea f7       	brpl	.-6      	; 0x542 <nokia_lcd_set_pixel+0x24>
 548:	44 23       	and	r20, r20
 54a:	19 f0       	breq	.+6      	; 0x552 <nokia_lcd_set_pixel+0x34>
 54c:	28 2b       	or	r18, r24
 54e:	20 83       	st	Z, r18
 550:	08 95       	ret
 552:	80 95       	com	r24
 554:	28 23       	and	r18, r24
 556:	fb cf       	rjmp	.-10     	; 0x54e <nokia_lcd_set_pixel+0x30>

00000558 <nokia_lcd_write_char>:
 558:	8f 92       	push	r8
 55a:	9f 92       	push	r9
 55c:	af 92       	push	r10
 55e:	bf 92       	push	r11
 560:	df 92       	push	r13
 562:	ef 92       	push	r14
 564:	ff 92       	push	r15
 566:	0f 93       	push	r16
 568:	1f 93       	push	r17
 56a:	cf 93       	push	r28
 56c:	df 93       	push	r29
 56e:	00 d0       	rcall	.+0      	; 0x570 <nokia_lcd_write_char+0x18>
 570:	00 d0       	rcall	.+0      	; 0x572 <nokia_lcd_write_char+0x1a>
 572:	0f 92       	push	r0
 574:	cd b7       	in	r28, 0x3d	; 61
 576:	de b7       	in	r29, 0x3e	; 62
 578:	e8 2f       	mov	r30, r24
 57a:	f6 2e       	mov	r15, r22
 57c:	80 32       	cpi	r24, 0x20	; 32
 57e:	0c f4       	brge	.+2      	; 0x582 <nokia_lcd_write_char+0x2a>
 580:	4d c0       	rjmp	.+154    	; 0x61c <nokia_lcd_write_char+0xc4>
 582:	e0 52       	subi	r30, 0x20	; 32
 584:	85 e0       	ldi	r24, 0x05	; 5
 586:	e8 02       	muls	r30, r24
 588:	b0 01       	movw	r22, r0
 58a:	11 24       	eor	r1, r1
 58c:	68 59       	subi	r22, 0x98	; 152
 58e:	7f 4f       	sbci	r23, 0xFF	; 255
 590:	45 e0       	ldi	r20, 0x05	; 5
 592:	50 e0       	ldi	r21, 0x00	; 0
 594:	ce 01       	movw	r24, r28
 596:	01 96       	adiw	r24, 0x01	; 1
 598:	0e 94 33 06 	call	0xc66	; 0xc66 <memcpy_P>
 59c:	8e 01       	movw	r16, r28
 59e:	0f 5f       	subi	r16, 0xFF	; 255
 5a0:	1f 4f       	sbci	r17, 0xFF	; 255
 5a2:	95 e0       	ldi	r25, 0x05	; 5
 5a4:	f9 9e       	mul	r15, r25
 5a6:	50 01       	movw	r10, r0
 5a8:	11 24       	eor	r1, r1
 5aa:	87 e0       	ldi	r24, 0x07	; 7
 5ac:	f8 9e       	mul	r15, r24
 5ae:	40 01       	movw	r8, r0
 5b0:	11 24       	eor	r1, r1
 5b2:	e1 2c       	mov	r14, r1
 5b4:	ea 14       	cp	r14, r10
 5b6:	1b 04       	cpc	r1, r11
 5b8:	0c f4       	brge	.+2      	; 0x5bc <nokia_lcd_write_char+0x64>
 5ba:	63 c0       	rjmp	.+198    	; 0x682 <nokia_lcd_write_char+0x12a>
 5bc:	80 91 5e 03 	lds	r24, 0x035E	; 0x80035e <nokia_lcd+0x1f8>
 5c0:	8f 5f       	subi	r24, 0xFF	; 255
 5c2:	9f 2d       	mov	r25, r15
 5c4:	99 0f       	add	r25, r25
 5c6:	99 0f       	add	r25, r25
 5c8:	9f 0d       	add	r25, r15
 5ca:	89 0f       	add	r24, r25
 5cc:	80 93 5e 03 	sts	0x035E, r24	; 0x80035e <nokia_lcd+0x1f8>
 5d0:	84 35       	cpi	r24, 0x54	; 84
 5d2:	58 f0       	brcs	.+22     	; 0x5ea <nokia_lcd_write_char+0x92>
 5d4:	80 91 5f 03 	lds	r24, 0x035F	; 0x80035f <nokia_lcd+0x1f9>
 5d8:	10 92 5e 03 	sts	0x035E, r1	; 0x80035e <nokia_lcd+0x1f8>
 5dc:	8f 5f       	subi	r24, 0xFF	; 255
 5de:	97 e0       	ldi	r25, 0x07	; 7
 5e0:	f9 9e       	mul	r15, r25
 5e2:	80 0d       	add	r24, r0
 5e4:	11 24       	eor	r1, r1
 5e6:	80 93 5f 03 	sts	0x035F, r24	; 0x80035f <nokia_lcd+0x1f9>
 5ea:	80 91 5f 03 	lds	r24, 0x035F	; 0x80035f <nokia_lcd+0x1f9>
 5ee:	80 33       	cpi	r24, 0x30	; 48
 5f0:	20 f0       	brcs	.+8      	; 0x5fa <nokia_lcd_write_char+0xa2>
 5f2:	10 92 5e 03 	sts	0x035E, r1	; 0x80035e <nokia_lcd+0x1f8>
 5f6:	10 92 5f 03 	sts	0x035F, r1	; 0x80035f <nokia_lcd+0x1f9>
 5fa:	0f 90       	pop	r0
 5fc:	0f 90       	pop	r0
 5fe:	0f 90       	pop	r0
 600:	0f 90       	pop	r0
 602:	0f 90       	pop	r0
 604:	df 91       	pop	r29
 606:	cf 91       	pop	r28
 608:	1f 91       	pop	r17
 60a:	0f 91       	pop	r16
 60c:	ff 90       	pop	r15
 60e:	ef 90       	pop	r14
 610:	df 90       	pop	r13
 612:	bf 90       	pop	r11
 614:	af 90       	pop	r10
 616:	9f 90       	pop	r9
 618:	8f 90       	pop	r8
 61a:	08 95       	ret
 61c:	ee 0f       	add	r30, r30
 61e:	ff 0b       	sbc	r31, r31
 620:	ea 5d       	subi	r30, 0xDA	; 218
 622:	fe 4f       	sbci	r31, 0xFE	; 254
 624:	00 81       	ld	r16, Z
 626:	11 81       	ldd	r17, Z+1	; 0x01
 628:	01 15       	cp	r16, r1
 62a:	11 05       	cpc	r17, r1
 62c:	09 f0       	breq	.+2      	; 0x630 <nokia_lcd_write_char+0xd8>
 62e:	b9 cf       	rjmp	.-142    	; 0x5a2 <nokia_lcd_write_char+0x4a>
 630:	45 e0       	ldi	r20, 0x05	; 5
 632:	50 e0       	ldi	r21, 0x00	; 0
 634:	68 e6       	ldi	r22, 0x68	; 104
 636:	70 e0       	ldi	r23, 0x00	; 0
 638:	ad cf       	rjmp	.-166    	; 0x594 <nokia_lcd_write_char+0x3c>
 63a:	ed 0d       	add	r30, r13
 63c:	5e 0d       	add	r21, r14
 63e:	8e 2d       	mov	r24, r14
 640:	6f 2d       	mov	r22, r15
 642:	0e 94 0a 05 	call	0xa14	; 0xa14 <__udivmodqi4>
 646:	d8 01       	movw	r26, r16
 648:	a8 0f       	add	r26, r24
 64a:	b1 1d       	adc	r27, r1
 64c:	2c 91       	ld	r18, X
 64e:	30 e0       	ldi	r19, 0x00	; 0
 650:	8d 2d       	mov	r24, r13
 652:	0e 94 0a 05 	call	0xa14	; 0xa14 <__udivmodqi4>
 656:	02 c0       	rjmp	.+4      	; 0x65c <nokia_lcd_write_char+0x104>
 658:	35 95       	asr	r19
 65a:	27 95       	ror	r18
 65c:	8a 95       	dec	r24
 65e:	e2 f7       	brpl	.-8      	; 0x658 <nokia_lcd_write_char+0x100>
 660:	41 e0       	ldi	r20, 0x01	; 1
 662:	20 ff       	sbrs	r18, 0
 664:	40 e0       	ldi	r20, 0x00	; 0
 666:	6e 2f       	mov	r22, r30
 668:	85 2f       	mov	r24, r21
 66a:	0e 94 8f 02 	call	0x51e	; 0x51e <nokia_lcd_set_pixel>
 66e:	d3 94       	inc	r13
 670:	e0 91 5f 03 	lds	r30, 0x035F	; 0x80035f <nokia_lcd+0x1f9>
 674:	50 91 5e 03 	lds	r21, 0x035E	; 0x80035e <nokia_lcd+0x1f8>
 678:	d8 14       	cp	r13, r8
 67a:	19 04       	cpc	r1, r9
 67c:	f4 f2       	brlt	.-68     	; 0x63a <nokia_lcd_write_char+0xe2>
 67e:	e3 94       	inc	r14
 680:	99 cf       	rjmp	.-206    	; 0x5b4 <nokia_lcd_write_char+0x5c>
 682:	d1 2c       	mov	r13, r1
 684:	f5 cf       	rjmp	.-22     	; 0x670 <nokia_lcd_write_char+0x118>

00000686 <nokia_lcd_custom>:
 686:	e8 2f       	mov	r30, r24
 688:	80 32       	cpi	r24, 0x20	; 32
 68a:	34 f4       	brge	.+12     	; 0x698 <nokia_lcd_custom+0x12>
 68c:	ee 0f       	add	r30, r30
 68e:	ff 0b       	sbc	r31, r31
 690:	ea 5d       	subi	r30, 0xDA	; 218
 692:	fe 4f       	sbci	r31, 0xFE	; 254
 694:	71 83       	std	Z+1, r23	; 0x01
 696:	60 83       	st	Z, r22
 698:	08 95       	ret

0000069a <nokia_lcd_write_string>:
 69a:	1f 93       	push	r17
 69c:	cf 93       	push	r28
 69e:	df 93       	push	r29
 6a0:	16 2f       	mov	r17, r22
 6a2:	ec 01       	movw	r28, r24
 6a4:	89 91       	ld	r24, Y+
 6a6:	81 11       	cpse	r24, r1
 6a8:	04 c0       	rjmp	.+8      	; 0x6b2 <nokia_lcd_write_string+0x18>
 6aa:	df 91       	pop	r29
 6ac:	cf 91       	pop	r28
 6ae:	1f 91       	pop	r17
 6b0:	08 95       	ret
 6b2:	61 2f       	mov	r22, r17
 6b4:	0e 94 ac 02 	call	0x558	; 0x558 <nokia_lcd_write_char>
 6b8:	f5 cf       	rjmp	.-22     	; 0x6a4 <nokia_lcd_write_string+0xa>

000006ba <nokia_lcd_set_cursor>:
 6ba:	80 93 5e 03 	sts	0x035E, r24	; 0x80035e <nokia_lcd+0x1f8>
 6be:	60 93 5f 03 	sts	0x035F, r22	; 0x80035f <nokia_lcd+0x1f9>
 6c2:	08 95       	ret

000006c4 <nokia_lcd_render>:
 6c4:	cf 93       	push	r28
 6c6:	df 93       	push	r29
 6c8:	80 e8       	ldi	r24, 0x80	; 128
 6ca:	0e 94 2d 02 	call	0x45a	; 0x45a <write_cmd>
 6ce:	80 e4       	ldi	r24, 0x40	; 64
 6d0:	0e 94 2d 02 	call	0x45a	; 0x45a <write_cmd>
 6d4:	c6 e6       	ldi	r28, 0x66	; 102
 6d6:	d1 e0       	ldi	r29, 0x01	; 1
 6d8:	61 e0       	ldi	r22, 0x01	; 1
 6da:	89 91       	ld	r24, Y+
 6dc:	0e 94 11 02 	call	0x422	; 0x422 <write>
 6e0:	83 e0       	ldi	r24, 0x03	; 3
 6e2:	ce 35       	cpi	r28, 0x5E	; 94
 6e4:	d8 07       	cpc	r29, r24
 6e6:	c1 f7       	brne	.-16     	; 0x6d8 <nokia_lcd_render+0x14>
 6e8:	df 91       	pop	r29
 6ea:	cf 91       	pop	r28
 6ec:	08 95       	ret

000006ee <main>:
 6ee:	cd b7       	in	r28, 0x3d	; 61
 6f0:	de b7       	in	r29, 0x3e	; 62
 6f2:	28 97       	sbiw	r28, 0x08	; 8
 6f4:	0f b6       	in	r0, 0x3f	; 63
 6f6:	f8 94       	cli
 6f8:	de bf       	out	0x3e, r29	; 62
 6fa:	0f be       	out	0x3f, r0	; 63
 6fc:	cd bf       	out	0x3d, r28	; 61
 6fe:	8a b1       	in	r24, 0x0a	; 10
 700:	80 7f       	andi	r24, 0xF0	; 240
 702:	8a b9       	out	0x0a, r24	; 10
 704:	8b b1       	in	r24, 0x0b	; 11
 706:	8f 60       	ori	r24, 0x0F	; 15
 708:	8b b9       	out	0x0b, r24	; 11
 70a:	87 b1       	in	r24, 0x07	; 7
 70c:	88 63       	ori	r24, 0x38	; 56
 70e:	87 b9       	out	0x07, r24	; 7
 710:	0e 94 43 01 	call	0x286	; 0x286 <lcd_atualizar>
 714:	0e 94 9e 01 	call	0x33c	; 0x33c <timer_init>
 718:	78 94       	sei
 71a:	11 e0       	ldi	r17, 0x01	; 1
 71c:	c1 2c       	mov	r12, r1
 71e:	d1 2c       	mov	r13, r1
 720:	80 e4       	ldi	r24, 0x40	; 64
 722:	e8 2e       	mov	r14, r24
 724:	82 e4       	ldi	r24, 0x42	; 66
 726:	f8 2e       	mov	r15, r24
 728:	80 91 24 01 	lds	r24, 0x0124	; 0x800124 <redON>
 72c:	81 11       	cpse	r24, r1
 72e:	01 c0       	rjmp	.+2      	; 0x732 <main+0x44>
 730:	45 9a       	sbi	0x08, 5	; 8
 732:	80 91 0a 01 	lds	r24, 0x010A	; 0x80010a <credito>
 736:	90 91 0b 01 	lds	r25, 0x010B	; 0x80010b <credito+0x1>
 73a:	a0 91 0c 01 	lds	r26, 0x010C	; 0x80010c <credito+0x2>
 73e:	b0 91 0d 01 	lds	r27, 0x010D	; 0x80010d <credito+0x3>
 742:	89 83       	std	Y+1, r24	; 0x01
 744:	9a 83       	std	Y+2, r25	; 0x02
 746:	ab 83       	std	Y+3, r26	; 0x03
 748:	bc 83       	std	Y+4, r27	; 0x04
 74a:	80 91 06 01 	lds	r24, 0x0106	; 0x800106 <decimo>
 74e:	90 91 07 01 	lds	r25, 0x0107	; 0x800107 <decimo+0x1>
 752:	a0 91 08 01 	lds	r26, 0x0108	; 0x800108 <decimo+0x2>
 756:	b0 91 09 01 	lds	r27, 0x0109	; 0x800109 <decimo+0x3>
 75a:	8d 83       	std	Y+5, r24	; 0x05
 75c:	9e 83       	std	Y+6, r25	; 0x06
 75e:	af 83       	std	Y+7, r26	; 0x07
 760:	b8 87       	std	Y+8, r27	; 0x08
 762:	20 e0       	ldi	r18, 0x00	; 0
 764:	30 e0       	ldi	r19, 0x00	; 0
 766:	44 e4       	ldi	r20, 0x44	; 68
 768:	52 e4       	ldi	r21, 0x42	; 66
 76a:	69 81       	ldd	r22, Y+1	; 0x01
 76c:	7a 81       	ldd	r23, Y+2	; 0x02
 76e:	8b 81       	ldd	r24, Y+3	; 0x03
 770:	9c 81       	ldd	r25, Y+4	; 0x04
 772:	0e 94 0a 06 	call	0xc14	; 0xc14 <__gesf2>
 776:	87 fd       	sbrc	r24, 7
 778:	0c c0       	rjmp	.+24     	; 0x792 <main+0xa4>
 77a:	20 e0       	ldi	r18, 0x00	; 0
 77c:	30 e0       	ldi	r19, 0x00	; 0
 77e:	44 e5       	ldi	r20, 0x54	; 84
 780:	52 e4       	ldi	r21, 0x42	; 66
 782:	6d 81       	ldd	r22, Y+5	; 0x05
 784:	7e 81       	ldd	r23, Y+6	; 0x06
 786:	8f 81       	ldd	r24, Y+7	; 0x07
 788:	98 85       	ldd	r25, Y+8	; 0x08
 78a:	0e 94 0a 06 	call	0xc14	; 0xc14 <__gesf2>
 78e:	87 ff       	sbrs	r24, 7
 790:	6e c0       	rjmp	.+220    	; 0x86e <main+0x180>
 792:	20 e0       	ldi	r18, 0x00	; 0
 794:	30 e0       	ldi	r19, 0x00	; 0
 796:	44 e4       	ldi	r20, 0x44	; 68
 798:	52 e4       	ldi	r21, 0x42	; 66
 79a:	69 81       	ldd	r22, Y+1	; 0x01
 79c:	7a 81       	ldd	r23, Y+2	; 0x02
 79e:	8b 81       	ldd	r24, Y+3	; 0x03
 7a0:	9c 81       	ldd	r25, Y+4	; 0x04
 7a2:	0e 94 0a 06 	call	0xc14	; 0xc14 <__gesf2>
 7a6:	18 16       	cp	r1, r24
 7a8:	0c f4       	brge	.+2      	; 0x7ac <main+0xbe>
 7aa:	61 c0       	rjmp	.+194    	; 0x86e <main+0x180>
 7ac:	48 9b       	sbis	0x09, 0	; 9
 7ae:	7a c0       	rjmp	.+244    	; 0x8a4 <main+0x1b6>
 7b0:	49 99       	sbic	0x09, 1	; 9
 7b2:	35 c0       	rjmp	.+106    	; 0x81e <main+0x130>
 7b4:	80 91 24 01 	lds	r24, 0x0124	; 0x800124 <redON>
 7b8:	88 23       	and	r24, r24
 7ba:	19 f0       	breq	.+6      	; 0x7c2 <main+0xd4>
 7bc:	43 98       	cbi	0x08, 3	; 8
 7be:	10 92 24 01 	sts	0x0124, r1	; 0x800124 <redON>
 7c2:	80 91 25 01 	lds	r24, 0x0125	; 0x800125 <contagemIniciada>
 7c6:	81 11       	cpse	r24, r1
 7c8:	28 c0       	rjmp	.+80     	; 0x81a <main+0x12c>
 7ca:	20 e0       	ldi	r18, 0x00	; 0
 7cc:	30 e0       	ldi	r19, 0x00	; 0
 7ce:	40 ea       	ldi	r20, 0xA0	; 160
 7d0:	50 e4       	ldi	r21, 0x40	; 64
 7d2:	60 91 06 01 	lds	r22, 0x0106	; 0x800106 <decimo>
 7d6:	70 91 07 01 	lds	r23, 0x0107	; 0x800107 <decimo+0x1>
 7da:	80 91 08 01 	lds	r24, 0x0108	; 0x800108 <decimo+0x2>
 7de:	90 91 09 01 	lds	r25, 0x0109	; 0x800109 <decimo+0x3>
 7e2:	0e 94 17 05 	call	0xa2e	; 0xa2e <__addsf3>
 7e6:	69 83       	std	Y+1, r22	; 0x01
 7e8:	7a 83       	std	Y+2, r23	; 0x02
 7ea:	8b 83       	std	Y+3, r24	; 0x03
 7ec:	9c 83       	std	Y+4, r25	; 0x04
 7ee:	20 e0       	ldi	r18, 0x00	; 0
 7f0:	30 e0       	ldi	r19, 0x00	; 0
 7f2:	48 e6       	ldi	r20, 0x68	; 104
 7f4:	52 e4       	ldi	r21, 0x42	; 66
 7f6:	0e 94 0a 06 	call	0xc14	; 0xc14 <__gesf2>
 7fa:	87 ff       	sbrs	r24, 7
 7fc:	ec c0       	rjmp	.+472    	; 0x9d6 <__stack+0xd7>
 7fe:	89 81       	ldd	r24, Y+1	; 0x01
 800:	9a 81       	ldd	r25, Y+2	; 0x02
 802:	ab 81       	ldd	r26, Y+3	; 0x03
 804:	bc 81       	ldd	r27, Y+4	; 0x04
 806:	80 93 06 01 	sts	0x0106, r24	; 0x800106 <decimo>
 80a:	90 93 07 01 	sts	0x0107, r25	; 0x800107 <decimo+0x1>
 80e:	a0 93 08 01 	sts	0x0108, r26	; 0x800108 <decimo+0x2>
 812:	b0 93 09 01 	sts	0x0109, r27	; 0x800109 <decimo+0x3>
 816:	0e 94 43 01 	call	0x286	; 0x286 <lcd_atualizar>
 81a:	49 9b       	sbis	0x09, 1	; 9
 81c:	fe cf       	rjmp	.-4      	; 0x81a <main+0x12c>
 81e:	4a 99       	sbic	0x09, 2	; 9
 820:	83 cf       	rjmp	.-250    	; 0x728 <main+0x3a>
 822:	80 91 24 01 	lds	r24, 0x0124	; 0x800124 <redON>
 826:	88 23       	and	r24, r24
 828:	19 f0       	breq	.+6      	; 0x830 <main+0x142>
 82a:	43 98       	cbi	0x08, 3	; 8
 82c:	10 92 24 01 	sts	0x0124, r1	; 0x800124 <redON>
 830:	80 91 25 01 	lds	r24, 0x0125	; 0x800125 <contagemIniciada>
 834:	81 11       	cpse	r24, r1
 836:	18 c0       	rjmp	.+48     	; 0x868 <main+0x17a>
 838:	20 e0       	ldi	r18, 0x00	; 0
 83a:	30 e0       	ldi	r19, 0x00	; 0
 83c:	40 e8       	ldi	r20, 0x80	; 128
 83e:	5f e3       	ldi	r21, 0x3F	; 63
 840:	60 91 0a 01 	lds	r22, 0x010A	; 0x80010a <credito>
 844:	70 91 0b 01 	lds	r23, 0x010B	; 0x80010b <credito+0x1>
 848:	80 91 0c 01 	lds	r24, 0x010C	; 0x80010c <credito+0x2>
 84c:	90 91 0d 01 	lds	r25, 0x010D	; 0x80010d <credito+0x3>
 850:	0e 94 17 05 	call	0xa2e	; 0xa2e <__addsf3>
 854:	60 93 0a 01 	sts	0x010A, r22	; 0x80010a <credito>
 858:	70 93 0b 01 	sts	0x010B, r23	; 0x80010b <credito+0x1>
 85c:	80 93 0c 01 	sts	0x010C, r24	; 0x80010c <credito+0x2>
 860:	90 93 0d 01 	sts	0x010D, r25	; 0x80010d <credito+0x3>
 864:	0e 94 43 01 	call	0x286	; 0x286 <lcd_atualizar>
 868:	4a 9b       	sbis	0x09, 2	; 9
 86a:	fe cf       	rjmp	.-4      	; 0x868 <main+0x17a>
 86c:	5d cf       	rjmp	.-326    	; 0x728 <main+0x3a>
 86e:	4b 99       	sbic	0x09, 3	; 9
 870:	78 cf       	rjmp	.-272    	; 0x762 <main+0x74>
 872:	89 e3       	ldi	r24, 0x39	; 57
 874:	90 e0       	ldi	r25, 0x00	; 0
 876:	90 93 01 01 	sts	0x0101, r25	; 0x800101 <tempoRestante+0x1>
 87a:	80 93 00 01 	sts	0x0100, r24	; 0x800100 <tempoRestante>
 87e:	10 93 25 01 	sts	0x0125, r17	; 0x800125 <contagemIniciada>
 882:	45 98       	cbi	0x08, 5	; 8
 884:	44 9a       	sbi	0x08, 4	; 8
 886:	0e 94 43 01 	call	0x286	; 0x286 <lcd_atualizar>
 88a:	20 91 25 01 	lds	r18, 0x0125	; 0x800125 <contagemIniciada>
 88e:	80 91 00 01 	lds	r24, 0x0100	; 0x800100 <tempoRestante>
 892:	90 91 01 01 	lds	r25, 0x0101	; 0x800101 <tempoRestante+0x1>
 896:	22 23       	and	r18, r18
 898:	09 f4       	brne	.+2      	; 0x89c <main+0x1ae>
 89a:	4b cf       	rjmp	.-362    	; 0x732 <main+0x44>
 89c:	81 33       	cpi	r24, 0x31	; 49
 89e:	91 05       	cpc	r25, r1
 8a0:	d4 f7       	brge	.-12     	; 0x896 <main+0x1a8>
 8a2:	47 cf       	rjmp	.-370    	; 0x732 <main+0x44>
 8a4:	80 91 24 01 	lds	r24, 0x0124	; 0x800124 <redON>
 8a8:	88 23       	and	r24, r24
 8aa:	19 f0       	breq	.+6      	; 0x8b2 <main+0x1c4>
 8ac:	43 98       	cbi	0x08, 3	; 8
 8ae:	10 92 24 01 	sts	0x0124, r1	; 0x800124 <redON>
 8b2:	80 91 25 01 	lds	r24, 0x0125	; 0x800125 <contagemIniciada>
 8b6:	81 11       	cpse	r24, r1
 8b8:	8b c0       	rjmp	.+278    	; 0x9d0 <__stack+0xd1>
 8ba:	20 e0       	ldi	r18, 0x00	; 0
 8bc:	30 e0       	ldi	r19, 0x00	; 0
 8be:	40 e0       	ldi	r20, 0x00	; 0
 8c0:	50 e4       	ldi	r21, 0x40	; 64
 8c2:	60 91 06 01 	lds	r22, 0x0106	; 0x800106 <decimo>
 8c6:	70 91 07 01 	lds	r23, 0x0107	; 0x800107 <decimo+0x1>
 8ca:	80 91 08 01 	lds	r24, 0x0108	; 0x800108 <decimo+0x2>
 8ce:	90 91 09 01 	lds	r25, 0x0109	; 0x800109 <decimo+0x3>
 8d2:	0e 94 17 05 	call	0xa2e	; 0xa2e <__addsf3>
 8d6:	69 83       	std	Y+1, r22	; 0x01
 8d8:	7a 83       	std	Y+2, r23	; 0x02
 8da:	8b 83       	std	Y+3, r24	; 0x03
 8dc:	9c 83       	std	Y+4, r25	; 0x04
 8de:	dc 01       	movw	r26, r24
 8e0:	cb 01       	movw	r24, r22
 8e2:	80 93 06 01 	sts	0x0106, r24	; 0x800106 <decimo>
 8e6:	90 93 07 01 	sts	0x0107, r25	; 0x800107 <decimo+0x1>
 8ea:	a0 93 08 01 	sts	0x0108, r26	; 0x800108 <decimo+0x2>
 8ee:	b0 93 09 01 	sts	0x0109, r27	; 0x800109 <decimo+0x3>
 8f2:	20 e0       	ldi	r18, 0x00	; 0
 8f4:	30 e0       	ldi	r19, 0x00	; 0
 8f6:	40 ea       	ldi	r20, 0xA0	; 160
 8f8:	50 e4       	ldi	r21, 0x40	; 64
 8fa:	60 91 02 01 	lds	r22, 0x0102	; 0x800102 <centesimo>
 8fe:	70 91 03 01 	lds	r23, 0x0103	; 0x800103 <centesimo+0x1>
 902:	80 91 04 01 	lds	r24, 0x0104	; 0x800104 <centesimo+0x2>
 906:	90 91 05 01 	lds	r25, 0x0105	; 0x800105 <centesimo+0x3>
 90a:	0e 94 17 05 	call	0xa2e	; 0xa2e <__addsf3>
 90e:	6d 83       	std	Y+5, r22	; 0x05
 910:	7e 83       	std	Y+6, r23	; 0x06
 912:	8f 83       	std	Y+7, r24	; 0x07
 914:	98 87       	std	Y+8, r25	; 0x08
 916:	dc 01       	movw	r26, r24
 918:	cb 01       	movw	r24, r22
 91a:	80 93 02 01 	sts	0x0102, r24	; 0x800102 <centesimo>
 91e:	90 93 03 01 	sts	0x0103, r25	; 0x800103 <centesimo+0x1>
 922:	a0 93 04 01 	sts	0x0104, r26	; 0x800104 <centesimo+0x2>
 926:	b0 93 05 01 	sts	0x0105, r27	; 0x800105 <centesimo+0x3>
 92a:	20 e0       	ldi	r18, 0x00	; 0
 92c:	30 e0       	ldi	r19, 0x00	; 0
 92e:	48 e6       	ldi	r20, 0x68	; 104
 930:	52 e4       	ldi	r21, 0x42	; 66
 932:	cd 01       	movw	r24, r26
 934:	0e 94 0a 06 	call	0xc14	; 0xc14 <__gesf2>
 938:	87 fd       	sbrc	r24, 7
 93a:	1a c0       	rjmp	.+52     	; 0x970 <__stack+0x71>
 93c:	20 e0       	ldi	r18, 0x00	; 0
 93e:	30 e0       	ldi	r19, 0x00	; 0
 940:	40 e8       	ldi	r20, 0x80	; 128
 942:	5f e3       	ldi	r21, 0x3F	; 63
 944:	69 81       	ldd	r22, Y+1	; 0x01
 946:	7a 81       	ldd	r23, Y+2	; 0x02
 948:	8b 81       	ldd	r24, Y+3	; 0x03
 94a:	9c 81       	ldd	r25, Y+4	; 0x04
 94c:	0e 94 17 05 	call	0xa2e	; 0xa2e <__addsf3>
 950:	60 93 06 01 	sts	0x0106, r22	; 0x800106 <decimo>
 954:	70 93 07 01 	sts	0x0107, r23	; 0x800107 <decimo+0x1>
 958:	80 93 08 01 	sts	0x0108, r24	; 0x800108 <decimo+0x2>
 95c:	90 93 09 01 	sts	0x0109, r25	; 0x800109 <decimo+0x3>
 960:	c0 92 02 01 	sts	0x0102, r12	; 0x800102 <centesimo>
 964:	d0 92 03 01 	sts	0x0103, r13	; 0x800103 <centesimo+0x1>
 968:	e0 92 04 01 	sts	0x0104, r14	; 0x800104 <centesimo+0x2>
 96c:	f0 92 05 01 	sts	0x0105, r15	; 0x800105 <centesimo+0x3>
 970:	20 e0       	ldi	r18, 0x00	; 0
 972:	30 e0       	ldi	r19, 0x00	; 0
 974:	48 e6       	ldi	r20, 0x68	; 104
 976:	52 e4       	ldi	r21, 0x42	; 66
 978:	60 91 06 01 	lds	r22, 0x0106	; 0x800106 <decimo>
 97c:	70 91 07 01 	lds	r23, 0x0107	; 0x800107 <decimo+0x1>
 980:	80 91 08 01 	lds	r24, 0x0108	; 0x800108 <decimo+0x2>
 984:	90 91 09 01 	lds	r25, 0x0109	; 0x800109 <decimo+0x3>
 988:	0e 94 0a 06 	call	0xc14	; 0xc14 <__gesf2>
 98c:	87 fd       	sbrc	r24, 7
 98e:	1e c0       	rjmp	.+60     	; 0x9cc <__stack+0xcd>
 990:	20 e0       	ldi	r18, 0x00	; 0
 992:	30 e0       	ldi	r19, 0x00	; 0
 994:	40 e8       	ldi	r20, 0x80	; 128
 996:	5f e3       	ldi	r21, 0x3F	; 63
 998:	60 91 0a 01 	lds	r22, 0x010A	; 0x80010a <credito>
 99c:	70 91 0b 01 	lds	r23, 0x010B	; 0x80010b <credito+0x1>
 9a0:	80 91 0c 01 	lds	r24, 0x010C	; 0x80010c <credito+0x2>
 9a4:	90 91 0d 01 	lds	r25, 0x010D	; 0x80010d <credito+0x3>
 9a8:	0e 94 17 05 	call	0xa2e	; 0xa2e <__addsf3>
 9ac:	60 93 0a 01 	sts	0x010A, r22	; 0x80010a <credito>
 9b0:	70 93 0b 01 	sts	0x010B, r23	; 0x80010b <credito+0x1>
 9b4:	80 93 0c 01 	sts	0x010C, r24	; 0x80010c <credito+0x2>
 9b8:	90 93 0d 01 	sts	0x010D, r25	; 0x80010d <credito+0x3>
 9bc:	c0 92 06 01 	sts	0x0106, r12	; 0x800106 <decimo>
 9c0:	d0 92 07 01 	sts	0x0107, r13	; 0x800107 <decimo+0x1>
 9c4:	e0 92 08 01 	sts	0x0108, r14	; 0x800108 <decimo+0x2>
 9c8:	f0 92 09 01 	sts	0x0109, r15	; 0x800109 <decimo+0x3>
 9cc:	0e 94 43 01 	call	0x286	; 0x286 <lcd_atualizar>
 9d0:	48 9b       	sbis	0x09, 0	; 9
 9d2:	fe cf       	rjmp	.-4      	; 0x9d0 <__stack+0xd1>
 9d4:	ed ce       	rjmp	.-550    	; 0x7b0 <main+0xc2>
 9d6:	c0 92 06 01 	sts	0x0106, r12	; 0x800106 <decimo>
 9da:	d0 92 07 01 	sts	0x0107, r13	; 0x800107 <decimo+0x1>
 9de:	e0 92 08 01 	sts	0x0108, r14	; 0x800108 <decimo+0x2>
 9e2:	f0 92 09 01 	sts	0x0109, r15	; 0x800109 <decimo+0x3>
 9e6:	20 e0       	ldi	r18, 0x00	; 0
 9e8:	30 e0       	ldi	r19, 0x00	; 0
 9ea:	40 e8       	ldi	r20, 0x80	; 128
 9ec:	5f e3       	ldi	r21, 0x3F	; 63
 9ee:	60 91 0a 01 	lds	r22, 0x010A	; 0x80010a <credito>
 9f2:	70 91 0b 01 	lds	r23, 0x010B	; 0x80010b <credito+0x1>
 9f6:	80 91 0c 01 	lds	r24, 0x010C	; 0x80010c <credito+0x2>
 9fa:	90 91 0d 01 	lds	r25, 0x010D	; 0x80010d <credito+0x3>
 9fe:	0e 94 17 05 	call	0xa2e	; 0xa2e <__addsf3>
 a02:	60 93 0a 01 	sts	0x010A, r22	; 0x80010a <credito>
 a06:	70 93 0b 01 	sts	0x010B, r23	; 0x80010b <credito+0x1>
 a0a:	80 93 0c 01 	sts	0x010C, r24	; 0x80010c <credito+0x2>
 a0e:	90 93 0d 01 	sts	0x010D, r25	; 0x80010d <credito+0x3>
 a12:	01 cf       	rjmp	.-510    	; 0x816 <main+0x128>

00000a14 <__udivmodqi4>:
 a14:	99 1b       	sub	r25, r25
 a16:	79 e0       	ldi	r23, 0x09	; 9
 a18:	04 c0       	rjmp	.+8      	; 0xa22 <__udivmodqi4_ep>

00000a1a <__udivmodqi4_loop>:
 a1a:	99 1f       	adc	r25, r25
 a1c:	96 17       	cp	r25, r22
 a1e:	08 f0       	brcs	.+2      	; 0xa22 <__udivmodqi4_ep>
 a20:	96 1b       	sub	r25, r22

00000a22 <__udivmodqi4_ep>:
 a22:	88 1f       	adc	r24, r24
 a24:	7a 95       	dec	r23
 a26:	c9 f7       	brne	.-14     	; 0xa1a <__udivmodqi4_loop>
 a28:	80 95       	com	r24
 a2a:	08 95       	ret

00000a2c <__subsf3>:
 a2c:	50 58       	subi	r21, 0x80	; 128

00000a2e <__addsf3>:
 a2e:	bb 27       	eor	r27, r27
 a30:	aa 27       	eor	r26, r26
 a32:	0e 94 2e 05 	call	0xa5c	; 0xa5c <__addsf3x>
 a36:	0c 94 d0 05 	jmp	0xba0	; 0xba0 <__fp_round>
 a3a:	0e 94 c2 05 	call	0xb84	; 0xb84 <__fp_pscA>
 a3e:	38 f0       	brcs	.+14     	; 0xa4e <__addsf3+0x20>
 a40:	0e 94 c9 05 	call	0xb92	; 0xb92 <__fp_pscB>
 a44:	20 f0       	brcs	.+8      	; 0xa4e <__addsf3+0x20>
 a46:	39 f4       	brne	.+14     	; 0xa56 <__addsf3+0x28>
 a48:	9f 3f       	cpi	r25, 0xFF	; 255
 a4a:	19 f4       	brne	.+6      	; 0xa52 <__addsf3+0x24>
 a4c:	26 f4       	brtc	.+8      	; 0xa56 <__addsf3+0x28>
 a4e:	0c 94 bf 05 	jmp	0xb7e	; 0xb7e <__fp_nan>
 a52:	0e f4       	brtc	.+2      	; 0xa56 <__addsf3+0x28>
 a54:	e0 95       	com	r30
 a56:	e7 fb       	bst	r30, 7
 a58:	0c 94 b9 05 	jmp	0xb72	; 0xb72 <__fp_inf>

00000a5c <__addsf3x>:
 a5c:	e9 2f       	mov	r30, r25
 a5e:	0e 94 e1 05 	call	0xbc2	; 0xbc2 <__fp_split3>
 a62:	58 f3       	brcs	.-42     	; 0xa3a <__addsf3+0xc>
 a64:	ba 17       	cp	r27, r26
 a66:	62 07       	cpc	r22, r18
 a68:	73 07       	cpc	r23, r19
 a6a:	84 07       	cpc	r24, r20
 a6c:	95 07       	cpc	r25, r21
 a6e:	20 f0       	brcs	.+8      	; 0xa78 <__addsf3x+0x1c>
 a70:	79 f4       	brne	.+30     	; 0xa90 <__addsf3x+0x34>
 a72:	a6 f5       	brtc	.+104    	; 0xadc <__addsf3x+0x80>
 a74:	0c 94 03 06 	jmp	0xc06	; 0xc06 <__fp_zero>
 a78:	0e f4       	brtc	.+2      	; 0xa7c <__addsf3x+0x20>
 a7a:	e0 95       	com	r30
 a7c:	0b 2e       	mov	r0, r27
 a7e:	ba 2f       	mov	r27, r26
 a80:	a0 2d       	mov	r26, r0
 a82:	0b 01       	movw	r0, r22
 a84:	b9 01       	movw	r22, r18
 a86:	90 01       	movw	r18, r0
 a88:	0c 01       	movw	r0, r24
 a8a:	ca 01       	movw	r24, r20
 a8c:	a0 01       	movw	r20, r0
 a8e:	11 24       	eor	r1, r1
 a90:	ff 27       	eor	r31, r31
 a92:	59 1b       	sub	r21, r25
 a94:	99 f0       	breq	.+38     	; 0xabc <__addsf3x+0x60>
 a96:	59 3f       	cpi	r21, 0xF9	; 249
 a98:	50 f4       	brcc	.+20     	; 0xaae <__addsf3x+0x52>
 a9a:	50 3e       	cpi	r21, 0xE0	; 224
 a9c:	68 f1       	brcs	.+90     	; 0xaf8 <__addsf3x+0x9c>
 a9e:	1a 16       	cp	r1, r26
 aa0:	f0 40       	sbci	r31, 0x00	; 0
 aa2:	a2 2f       	mov	r26, r18
 aa4:	23 2f       	mov	r18, r19
 aa6:	34 2f       	mov	r19, r20
 aa8:	44 27       	eor	r20, r20
 aaa:	58 5f       	subi	r21, 0xF8	; 248
 aac:	f3 cf       	rjmp	.-26     	; 0xa94 <__addsf3x+0x38>
 aae:	46 95       	lsr	r20
 ab0:	37 95       	ror	r19
 ab2:	27 95       	ror	r18
 ab4:	a7 95       	ror	r26
 ab6:	f0 40       	sbci	r31, 0x00	; 0
 ab8:	53 95       	inc	r21
 aba:	c9 f7       	brne	.-14     	; 0xaae <__addsf3x+0x52>
 abc:	7e f4       	brtc	.+30     	; 0xadc <__addsf3x+0x80>
 abe:	1f 16       	cp	r1, r31
 ac0:	ba 0b       	sbc	r27, r26
 ac2:	62 0b       	sbc	r22, r18
 ac4:	73 0b       	sbc	r23, r19
 ac6:	84 0b       	sbc	r24, r20
 ac8:	ba f0       	brmi	.+46     	; 0xaf8 <__addsf3x+0x9c>
 aca:	91 50       	subi	r25, 0x01	; 1
 acc:	a1 f0       	breq	.+40     	; 0xaf6 <__addsf3x+0x9a>
 ace:	ff 0f       	add	r31, r31
 ad0:	bb 1f       	adc	r27, r27
 ad2:	66 1f       	adc	r22, r22
 ad4:	77 1f       	adc	r23, r23
 ad6:	88 1f       	adc	r24, r24
 ad8:	c2 f7       	brpl	.-16     	; 0xaca <__addsf3x+0x6e>
 ada:	0e c0       	rjmp	.+28     	; 0xaf8 <__addsf3x+0x9c>
 adc:	ba 0f       	add	r27, r26
 ade:	62 1f       	adc	r22, r18
 ae0:	73 1f       	adc	r23, r19
 ae2:	84 1f       	adc	r24, r20
 ae4:	48 f4       	brcc	.+18     	; 0xaf8 <__addsf3x+0x9c>
 ae6:	87 95       	ror	r24
 ae8:	77 95       	ror	r23
 aea:	67 95       	ror	r22
 aec:	b7 95       	ror	r27
 aee:	f7 95       	ror	r31
 af0:	9e 3f       	cpi	r25, 0xFE	; 254
 af2:	08 f0       	brcs	.+2      	; 0xaf6 <__addsf3x+0x9a>
 af4:	b0 cf       	rjmp	.-160    	; 0xa56 <__addsf3+0x28>
 af6:	93 95       	inc	r25
 af8:	88 0f       	add	r24, r24
 afa:	08 f0       	brcs	.+2      	; 0xafe <__addsf3x+0xa2>
 afc:	99 27       	eor	r25, r25
 afe:	ee 0f       	add	r30, r30
 b00:	97 95       	ror	r25
 b02:	87 95       	ror	r24
 b04:	08 95       	ret

00000b06 <__fixsfsi>:
 b06:	0e 94 8a 05 	call	0xb14	; 0xb14 <__fixunssfsi>
 b0a:	68 94       	set
 b0c:	b1 11       	cpse	r27, r1
 b0e:	0c 94 04 06 	jmp	0xc08	; 0xc08 <__fp_szero>
 b12:	08 95       	ret

00000b14 <__fixunssfsi>:
 b14:	0e 94 e9 05 	call	0xbd2	; 0xbd2 <__fp_splitA>
 b18:	88 f0       	brcs	.+34     	; 0xb3c <__fixunssfsi+0x28>
 b1a:	9f 57       	subi	r25, 0x7F	; 127
 b1c:	98 f0       	brcs	.+38     	; 0xb44 <__fixunssfsi+0x30>
 b1e:	b9 2f       	mov	r27, r25
 b20:	99 27       	eor	r25, r25
 b22:	b7 51       	subi	r27, 0x17	; 23
 b24:	b0 f0       	brcs	.+44     	; 0xb52 <__fixunssfsi+0x3e>
 b26:	e1 f0       	breq	.+56     	; 0xb60 <__fixunssfsi+0x4c>
 b28:	66 0f       	add	r22, r22
 b2a:	77 1f       	adc	r23, r23
 b2c:	88 1f       	adc	r24, r24
 b2e:	99 1f       	adc	r25, r25
 b30:	1a f0       	brmi	.+6      	; 0xb38 <__fixunssfsi+0x24>
 b32:	ba 95       	dec	r27
 b34:	c9 f7       	brne	.-14     	; 0xb28 <__fixunssfsi+0x14>
 b36:	14 c0       	rjmp	.+40     	; 0xb60 <__fixunssfsi+0x4c>
 b38:	b1 30       	cpi	r27, 0x01	; 1
 b3a:	91 f0       	breq	.+36     	; 0xb60 <__fixunssfsi+0x4c>
 b3c:	0e 94 03 06 	call	0xc06	; 0xc06 <__fp_zero>
 b40:	b1 e0       	ldi	r27, 0x01	; 1
 b42:	08 95       	ret
 b44:	0c 94 03 06 	jmp	0xc06	; 0xc06 <__fp_zero>
 b48:	67 2f       	mov	r22, r23
 b4a:	78 2f       	mov	r23, r24
 b4c:	88 27       	eor	r24, r24
 b4e:	b8 5f       	subi	r27, 0xF8	; 248
 b50:	39 f0       	breq	.+14     	; 0xb60 <__fixunssfsi+0x4c>
 b52:	b9 3f       	cpi	r27, 0xF9	; 249
 b54:	cc f3       	brlt	.-14     	; 0xb48 <__fixunssfsi+0x34>
 b56:	86 95       	lsr	r24
 b58:	77 95       	ror	r23
 b5a:	67 95       	ror	r22
 b5c:	b3 95       	inc	r27
 b5e:	d9 f7       	brne	.-10     	; 0xb56 <__fixunssfsi+0x42>
 b60:	3e f4       	brtc	.+14     	; 0xb70 <__fixunssfsi+0x5c>
 b62:	90 95       	com	r25
 b64:	80 95       	com	r24
 b66:	70 95       	com	r23
 b68:	61 95       	neg	r22
 b6a:	7f 4f       	sbci	r23, 0xFF	; 255
 b6c:	8f 4f       	sbci	r24, 0xFF	; 255
 b6e:	9f 4f       	sbci	r25, 0xFF	; 255
 b70:	08 95       	ret

00000b72 <__fp_inf>:
 b72:	97 f9       	bld	r25, 7
 b74:	9f 67       	ori	r25, 0x7F	; 127
 b76:	80 e8       	ldi	r24, 0x80	; 128
 b78:	70 e0       	ldi	r23, 0x00	; 0
 b7a:	60 e0       	ldi	r22, 0x00	; 0
 b7c:	08 95       	ret

00000b7e <__fp_nan>:
 b7e:	9f ef       	ldi	r25, 0xFF	; 255
 b80:	80 ec       	ldi	r24, 0xC0	; 192
 b82:	08 95       	ret

00000b84 <__fp_pscA>:
 b84:	00 24       	eor	r0, r0
 b86:	0a 94       	dec	r0
 b88:	16 16       	cp	r1, r22
 b8a:	17 06       	cpc	r1, r23
 b8c:	18 06       	cpc	r1, r24
 b8e:	09 06       	cpc	r0, r25
 b90:	08 95       	ret

00000b92 <__fp_pscB>:
 b92:	00 24       	eor	r0, r0
 b94:	0a 94       	dec	r0
 b96:	12 16       	cp	r1, r18
 b98:	13 06       	cpc	r1, r19
 b9a:	14 06       	cpc	r1, r20
 b9c:	05 06       	cpc	r0, r21
 b9e:	08 95       	ret

00000ba0 <__fp_round>:
 ba0:	09 2e       	mov	r0, r25
 ba2:	03 94       	inc	r0
 ba4:	00 0c       	add	r0, r0
 ba6:	11 f4       	brne	.+4      	; 0xbac <__fp_round+0xc>
 ba8:	88 23       	and	r24, r24
 baa:	52 f0       	brmi	.+20     	; 0xbc0 <__fp_round+0x20>
 bac:	bb 0f       	add	r27, r27
 bae:	40 f4       	brcc	.+16     	; 0xbc0 <__fp_round+0x20>
 bb0:	bf 2b       	or	r27, r31
 bb2:	11 f4       	brne	.+4      	; 0xbb8 <__fp_round+0x18>
 bb4:	60 ff       	sbrs	r22, 0
 bb6:	04 c0       	rjmp	.+8      	; 0xbc0 <__fp_round+0x20>
 bb8:	6f 5f       	subi	r22, 0xFF	; 255
 bba:	7f 4f       	sbci	r23, 0xFF	; 255
 bbc:	8f 4f       	sbci	r24, 0xFF	; 255
 bbe:	9f 4f       	sbci	r25, 0xFF	; 255
 bc0:	08 95       	ret

00000bc2 <__fp_split3>:
 bc2:	57 fd       	sbrc	r21, 7
 bc4:	90 58       	subi	r25, 0x80	; 128
 bc6:	44 0f       	add	r20, r20
 bc8:	55 1f       	adc	r21, r21
 bca:	59 f0       	breq	.+22     	; 0xbe2 <__fp_splitA+0x10>
 bcc:	5f 3f       	cpi	r21, 0xFF	; 255
 bce:	71 f0       	breq	.+28     	; 0xbec <__fp_splitA+0x1a>
 bd0:	47 95       	ror	r20

00000bd2 <__fp_splitA>:
 bd2:	88 0f       	add	r24, r24
 bd4:	97 fb       	bst	r25, 7
 bd6:	99 1f       	adc	r25, r25
 bd8:	61 f0       	breq	.+24     	; 0xbf2 <__fp_splitA+0x20>
 bda:	9f 3f       	cpi	r25, 0xFF	; 255
 bdc:	79 f0       	breq	.+30     	; 0xbfc <__fp_splitA+0x2a>
 bde:	87 95       	ror	r24
 be0:	08 95       	ret
 be2:	12 16       	cp	r1, r18
 be4:	13 06       	cpc	r1, r19
 be6:	14 06       	cpc	r1, r20
 be8:	55 1f       	adc	r21, r21
 bea:	f2 cf       	rjmp	.-28     	; 0xbd0 <__fp_split3+0xe>
 bec:	46 95       	lsr	r20
 bee:	f1 df       	rcall	.-30     	; 0xbd2 <__fp_splitA>
 bf0:	08 c0       	rjmp	.+16     	; 0xc02 <__fp_splitA+0x30>
 bf2:	16 16       	cp	r1, r22
 bf4:	17 06       	cpc	r1, r23
 bf6:	18 06       	cpc	r1, r24
 bf8:	99 1f       	adc	r25, r25
 bfa:	f1 cf       	rjmp	.-30     	; 0xbde <__fp_splitA+0xc>
 bfc:	86 95       	lsr	r24
 bfe:	71 05       	cpc	r23, r1
 c00:	61 05       	cpc	r22, r1
 c02:	08 94       	sec
 c04:	08 95       	ret

00000c06 <__fp_zero>:
 c06:	e8 94       	clt

00000c08 <__fp_szero>:
 c08:	bb 27       	eor	r27, r27
 c0a:	66 27       	eor	r22, r22
 c0c:	77 27       	eor	r23, r23
 c0e:	cb 01       	movw	r24, r22
 c10:	97 f9       	bld	r25, 7
 c12:	08 95       	ret

00000c14 <__gesf2>:
 c14:	0e 94 0f 06 	call	0xc1e	; 0xc1e <__fp_cmp>
 c18:	08 f4       	brcc	.+2      	; 0xc1c <__gesf2+0x8>
 c1a:	8f ef       	ldi	r24, 0xFF	; 255
 c1c:	08 95       	ret

00000c1e <__fp_cmp>:
 c1e:	99 0f       	add	r25, r25
 c20:	00 08       	sbc	r0, r0
 c22:	55 0f       	add	r21, r21
 c24:	aa 0b       	sbc	r26, r26
 c26:	e0 e8       	ldi	r30, 0x80	; 128
 c28:	fe ef       	ldi	r31, 0xFE	; 254
 c2a:	16 16       	cp	r1, r22
 c2c:	17 06       	cpc	r1, r23
 c2e:	e8 07       	cpc	r30, r24
 c30:	f9 07       	cpc	r31, r25
 c32:	c0 f0       	brcs	.+48     	; 0xc64 <__fp_cmp+0x46>
 c34:	12 16       	cp	r1, r18
 c36:	13 06       	cpc	r1, r19
 c38:	e4 07       	cpc	r30, r20
 c3a:	f5 07       	cpc	r31, r21
 c3c:	98 f0       	brcs	.+38     	; 0xc64 <__fp_cmp+0x46>
 c3e:	62 1b       	sub	r22, r18
 c40:	73 0b       	sbc	r23, r19
 c42:	84 0b       	sbc	r24, r20
 c44:	95 0b       	sbc	r25, r21
 c46:	39 f4       	brne	.+14     	; 0xc56 <__fp_cmp+0x38>
 c48:	0a 26       	eor	r0, r26
 c4a:	61 f0       	breq	.+24     	; 0xc64 <__fp_cmp+0x46>
 c4c:	23 2b       	or	r18, r19
 c4e:	24 2b       	or	r18, r20
 c50:	25 2b       	or	r18, r21
 c52:	21 f4       	brne	.+8      	; 0xc5c <__fp_cmp+0x3e>
 c54:	08 95       	ret
 c56:	0a 26       	eor	r0, r26
 c58:	09 f4       	brne	.+2      	; 0xc5c <__fp_cmp+0x3e>
 c5a:	a1 40       	sbci	r26, 0x01	; 1
 c5c:	a6 95       	lsr	r26
 c5e:	8f ef       	ldi	r24, 0xFF	; 255
 c60:	81 1d       	adc	r24, r1
 c62:	81 1d       	adc	r24, r1
 c64:	08 95       	ret

00000c66 <memcpy_P>:
 c66:	fb 01       	movw	r30, r22
 c68:	dc 01       	movw	r26, r24
 c6a:	02 c0       	rjmp	.+4      	; 0xc70 <memcpy_P+0xa>
 c6c:	05 90       	lpm	r0, Z+
 c6e:	0d 92       	st	X+, r0
 c70:	41 50       	subi	r20, 0x01	; 1
 c72:	50 40       	sbci	r21, 0x00	; 0
 c74:	d8 f7       	brcc	.-10     	; 0xc6c <memcpy_P+0x6>
 c76:	08 95       	ret

00000c78 <_exit>:
 c78:	f8 94       	cli

00000c7a <__stop_program>:
 c7a:	ff cf       	rjmp	.-2      	; 0xc7a <__stop_program>
